target datalayout = "e-m:e-p270:32:32-p271:32:32-p272:64:64-i64:64-i128:128-f80:128-n8:16:32:64-S128"
target triple = "x86_64-pc-linux-gnu"

; Function Attrs: inlinehint nounwind uwtable
define internal i32 @rnd_avg32(i32 noundef %0, i32 noundef %1) #2 {
  %3 = alloca i32, align 4
  %4 = alloca i32, align 4
  store i32 %0, ptr %3, align 4, !tbaa !9
  store i32 %1, ptr %4, align 4, !tbaa !9
  %5 = load i32, ptr %3, align 4, !tbaa !9
  %6 = load i32, ptr %4, align 4, !tbaa !9
  %7 = or i32 %5, %6
  %8 = zext i32 %7 to i64
  %9 = load i32, ptr %3, align 4, !tbaa !9
  %10 = load i32, ptr %4, align 4, !tbaa !9
  %11 = xor i32 %9, %10
  %12 = zext i32 %11 to i64
  %13 = and i64 %12, -16843010
  %14 = lshr i64 %13, 1
  %15 = sub i64 %8, %14
  %16 = trunc i64 %15 to i32
  ret i32 %16
}

; Function Attrs: inlinehint nounwind uwtable
define internal void @avg_pixels4_xy2_8_c(ptr noundef %0, ptr noundef %1, i64 noundef %2, i32 noundef %3) #2 {
  %5 = alloca ptr, align 8
  %6 = alloca ptr, align 8
  %7 = alloca i64, align 8
  %8 = alloca i32, align 4
  %9 = alloca i32, align 4
  %10 = alloca i32, align 4
  %11 = alloca i32, align 4
  %12 = alloca i32, align 4
  %13 = alloca i32, align 4
  %14 = alloca i32, align 4
  %15 = alloca i32, align 4
  %16 = alloca i32, align 4
  %17 = alloca i32, align 4
  store ptr %0, ptr %5, align 8, !tbaa !12
  store ptr %1, ptr %6, align 8, !tbaa !12
  store i64 %2, ptr %7, align 8, !tbaa !14
  store i32 %3, ptr %8, align 4, !tbaa !9
  call void @llvm.lifetime.start.p0(i64 4, ptr %9) #4
  call void @llvm.lifetime.start.p0(i64 4, ptr %10) #4
  %18 = load ptr, ptr %6, align 8, !tbaa !12
  %19 = load i32, ptr %18, align 1, !tbaa !16
  store i32 %19, ptr %10, align 4, !tbaa !9
  call void @llvm.lifetime.start.p0(i64 4, ptr %11) #4
  %20 = load ptr, ptr %6, align 8, !tbaa !12
  %21 = getelementptr inbounds i8, ptr %20, i64 1
  %22 = load i32, ptr %21, align 1, !tbaa !16
  store i32 %22, ptr %11, align 4, !tbaa !9
  call void @llvm.lifetime.start.p0(i64 4, ptr %12) #4
  %23 = load i32, ptr %10, align 4, !tbaa !9
  %24 = zext i32 %23 to i64
  %25 = and i64 %24, 50529027
  %26 = load i32, ptr %11, align 4, !tbaa !9
  %27 = zext i32 %26 to i64
  %28 = and i64 %27, 50529027
  %29 = add i64 %25, %28
  %30 = add i64 %29, 33686018
  %31 = trunc i64 %30 to i32
  store i32 %31, ptr %12, align 4, !tbaa !9
  call void @llvm.lifetime.start.p0(i64 4, ptr %13) #4
  %32 = load i32, ptr %10, align 4, !tbaa !9
  %33 = zext i32 %32 to i64
  %34 = and i64 %33, 4244438268
  %35 = lshr i64 %34, 2
  %36 = load i32, ptr %11, align 4, !tbaa !9
  %37 = zext i32 %36 to i64
  %38 = and i64 %37, 4244438268
  %39 = lshr i64 %38, 2
  %40 = add i64 %35, %39
  %41 = trunc i64 %40 to i32
  store i32 %41, ptr %13, align 4, !tbaa !9
  call void @llvm.lifetime.start.p0(i64 4, ptr %14) #4
  call void @llvm.lifetime.start.p0(i64 4, ptr %15) #4
  %42 = load i64, ptr %7, align 8, !tbaa !14
  %43 = load ptr, ptr %6, align 8, !tbaa !12
  %44 = getelementptr inbounds i8, ptr %43, i64 %42
  store ptr %44, ptr %6, align 8, !tbaa !12
  store i32 0, ptr %9, align 4, !tbaa !9
  br label %45

45:                                               ; preds = %141, %4
  %46 = load i32, ptr %9, align 4, !tbaa !9
  %47 = load i32, ptr %8, align 4, !tbaa !9
  %48 = icmp slt i32 %46, %47
  br i1 %48, label %49, label %144

49:                                               ; preds = %45
  call void @llvm.lifetime.start.p0(i64 4, ptr %16) #4
  %50 = load ptr, ptr %6, align 8, !tbaa !12
  %51 = load i32, ptr %50, align 1, !tbaa !16
  store i32 %51, ptr %16, align 4, !tbaa !9
  call void @llvm.lifetime.start.p0(i64 4, ptr %17) #4
  %52 = load ptr, ptr %6, align 8, !tbaa !12
  %53 = getelementptr inbounds i8, ptr %52, i64 1
  %54 = load i32, ptr %53, align 1, !tbaa !16
  store i32 %54, ptr %17, align 4, !tbaa !9
  %55 = load i32, ptr %16, align 4, !tbaa !9
  %56 = zext i32 %55 to i64
  %57 = and i64 %56, 50529027
  %58 = load i32, ptr %17, align 4, !tbaa !9
  %59 = zext i32 %58 to i64
  %60 = and i64 %59, 50529027
  %61 = add i64 %57, %60
  %62 = trunc i64 %61 to i32
  store i32 %62, ptr %14, align 4, !tbaa !9
  %63 = load i32, ptr %16, align 4, !tbaa !9
  %64 = zext i32 %63 to i64
  %65 = and i64 %64, 4244438268
  %66 = lshr i64 %65, 2
  %67 = load i32, ptr %17, align 4, !tbaa !9
  %68 = zext i32 %67 to i64
  %69 = and i64 %68, 4244438268
  %70 = lshr i64 %69, 2
  %71 = add i64 %66, %70
  %72 = trunc i64 %71 to i32
  store i32 %72, ptr %15, align 4, !tbaa !9
  %73 = load ptr, ptr %5, align 8, !tbaa !12
  %74 = load i32, ptr %73, align 4, !tbaa !9
  %75 = load i32, ptr %13, align 4, !tbaa !9
  %76 = load i32, ptr %15, align 4, !tbaa !9
  %77 = add i32 %75, %76
  %78 = zext i32 %77 to i64
  %79 = load i32, ptr %12, align 4, !tbaa !9
  %80 = load i32, ptr %14, align 4, !tbaa !9
  %81 = add i32 %79, %80
  %82 = lshr i32 %81, 2
  %83 = zext i32 %82 to i64
  %84 = and i64 %83, 252645135
  %85 = add i64 %78, %84
  %86 = trunc i64 %85 to i32
  %87 = call i32 @rnd_avg32(i32 noundef %74, i32 noundef %86)
  %88 = load ptr, ptr %5, align 8, !tbaa !12
  store i32 %87, ptr %88, align 4, !tbaa !9
  %89 = load i64, ptr %7, align 8, !tbaa !14
  %90 = load ptr, ptr %6, align 8, !tbaa !12
  %91 = getelementptr inbounds i8, ptr %90, i64 %89
  store ptr %91, ptr %6, align 8, !tbaa !12
  %92 = load i64, ptr %7, align 8, !tbaa !14
  %93 = load ptr, ptr %5, align 8, !tbaa !12
  %94 = getelementptr inbounds i8, ptr %93, i64 %92
  store ptr %94, ptr %5, align 8, !tbaa !12
  %95 = load ptr, ptr %6, align 8, !tbaa !12
  %96 = load i32, ptr %95, align 1, !tbaa !16
  store i32 %96, ptr %16, align 4, !tbaa !9
  %97 = load ptr, ptr %6, align 8, !tbaa !12
  %98 = getelementptr inbounds i8, ptr %97, i64 1
  %99 = load i32, ptr %98, align 1, !tbaa !16
  store i32 %99, ptr %17, align 4, !tbaa !9
  %100 = load i32, ptr %16, align 4, !tbaa !9
  %101 = zext i32 %100 to i64
  %102 = and i64 %101, 50529027
  %103 = load i32, ptr %17, align 4, !tbaa !9
  %104 = zext i32 %103 to i64
  %105 = and i64 %104, 50529027
  %106 = add i64 %102, %105
  %107 = add i64 %106, 33686018
  %108 = trunc i64 %107 to i32
  store i32 %108, ptr %12, align 4, !tbaa !9
  %109 = load i32, ptr %16, align 4, !tbaa !9
  %110 = zext i32 %109 to i64
  %111 = and i64 %110, 4244438268
  %112 = lshr i64 %111, 2
  %113 = load i32, ptr %17, align 4, !tbaa !9
  %114 = zext i32 %113 to i64
  %115 = and i64 %114, 4244438268
  %116 = lshr i64 %115, 2
  %117 = add i64 %112, %116
  %118 = trunc i64 %117 to i32
  store i32 %118, ptr %13, align 4, !tbaa !9
  %119 = load ptr, ptr %5, align 8, !tbaa !12
  %120 = load i32, ptr %119, align 4, !tbaa !9
  %121 = load i32, ptr %13, align 4, !tbaa !9
  %122 = load i32, ptr %15, align 4, !tbaa !9
  %123 = add i32 %121, %122
  %124 = zext i32 %123 to i64
  %125 = load i32, ptr %12, align 4, !tbaa !9
  %126 = load i32, ptr %14, align 4, !tbaa !9
  %127 = add i32 %125, %126
  %128 = lshr i32 %127, 2
  %129 = zext i32 %128 to i64
  %130 = and i64 %129, 252645135
  %131 = add i64 %124, %130
  %132 = trunc i64 %131 to i32
  %133 = call i32 @rnd_avg32(i32 noundef %120, i32 noundef %132)
  %134 = load ptr, ptr %5, align 8, !tbaa !12
  store i32 %133, ptr %134, align 4, !tbaa !9
  %135 = load i64, ptr %7, align 8, !tbaa !14
  %136 = load ptr, ptr %6, align 8, !tbaa !12
  %137 = getelementptr inbounds i8, ptr %136, i64 %135
  store ptr %137, ptr %6, align 8, !tbaa !12
  %138 = load i64, ptr %7, align 8, !tbaa !14
  %139 = load ptr, ptr %5, align 8, !tbaa !12
  %140 = getelementptr inbounds i8, ptr %139, i64 %138
  store ptr %140, ptr %5, align 8, !tbaa !12
  call void @llvm.lifetime.end.p0(i64 4, ptr %17) #4
  call void @llvm.lifetime.end.p0(i64 4, ptr %16) #4
  br label %141

141:                                              ; preds = %49
  %142 = load i32, ptr %9, align 4, !tbaa !9
  %143 = add nsw i32 %142, 2
  store i32 %143, ptr %9, align 4, !tbaa !9
  br label %45, !llvm.loop !33

144:                                              ; preds = %45
  call void @llvm.lifetime.end.p0(i64 4, ptr %15) #4
  call void @llvm.lifetime.end.p0(i64 4, ptr %14) #4
  call void @llvm.lifetime.end.p0(i64 4, ptr %13) #4
  call void @llvm.lifetime.end.p0(i64 4, ptr %12) #4
  call void @llvm.lifetime.end.p0(i64 4, ptr %11) #4
  call void @llvm.lifetime.end.p0(i64 4, ptr %10) #4
  call void @llvm.lifetime.end.p0(i64 4, ptr %9) #4
  ret void
}