; Function Attrs: inlinehint nofree norecurse nosync nounwind memory(argmem: readwrite) uwtable
define internal void @avg_pixels4_xy2_8_c(ptr noundef captures(none) %0, ptr noundef readonly captures(none) %1, i64 noundef %2, i32 noundef %3) #2 {
  %5 = icmp sgt i32 %3, 0
  br i1 %5, label %.lr.ph.preheader, label %._crit_edge

.lr.ph.preheader:                                 ; preds = %4
  %6 = getelementptr inbounds nuw i8, ptr %1, i64 1
  %7 = load i32, ptr %6, align 1, !tbaa !8
  %8 = lshr i32 %7, 2
  %9 = and i32 %8, 1061109567
  %10 = load i32, ptr %1, align 1, !tbaa !8
  %11 = lshr i32 %10, 2
  %12 = and i32 %11, 1061109567
  %narrow = add nuw nsw i32 %9, %12
  %13 = and i32 %10, 50529027
  %14 = add nuw nsw i32 %13, 33686018
  %15 = and i32 %7, 50529027
  %16 = add nuw nsw i32 %14, %15
  br label %.lr.ph

.lr.ph:                                           ; preds = %.lr.ph.preheader, %.lr.ph
  %.052 = phi ptr [ %62, %.lr.ph ], [ %0, %.lr.ph.preheader ]
  %.pn51 = phi ptr [ %38, %.lr.ph ], [ %1, %.lr.ph.preheader ]
  %.04350 = phi i32 [ %63, %.lr.ph ], [ 0, %.lr.ph.preheader ]
  %.04449 = phi i32 [ %46, %.lr.ph ], [ %16, %.lr.ph.preheader ]
  %.04548 = phi i32 [ %narrow47, %.lr.ph ], [ %narrow, %.lr.ph.preheader ]
  %.042 = getelementptr inbounds i8, ptr %.pn51, i64 %2
  %17 = load i32, ptr %.042, align 1, !tbaa !8
  %18 = getelementptr inbounds nuw i8, ptr %.042, i64 1
  %19 = load i32, ptr %18, align 1, !tbaa !8
  %20 = and i32 %17, 50529027
  %21 = and i32 %19, 50529027
  %22 = add nuw nsw i32 %21, %20
  %23 = lshr i32 %17, 2
  %24 = and i32 %23, 1061109567
  %25 = lshr i32 %19, 2
  %26 = and i32 %25, 1061109567
  %narrow46 = add nuw nsw i32 %26, %24
  %27 = load i32, ptr %.052, align 4, !tbaa !9
  %28 = add nuw i32 %narrow46, %.04548
  %29 = add nuw nsw i32 %22, %.04449
  %30 = lshr i32 %29, 2
  %31 = and i32 %30, 252645135
  %32 = add i32 %28, %31
  %33 = or i32 %32, %27
  %34 = xor i32 %32, %27
  %35 = lshr i32 %34, 1
  %36 = and i32 %35, 2139062143
  %37 = sub i32 %33, %36
  store i32 %37, ptr %.052, align 4, !tbaa !9
  %38 = getelementptr inbounds i8, ptr %.042, i64 %2
  %39 = getelementptr inbounds i8, ptr %.052, i64 %2
  %40 = load i32, ptr %38, align 1, !tbaa !8
  %41 = getelementptr inbounds nuw i8, ptr %38, i64 1
  %42 = load i32, ptr %41, align 1, !tbaa !8
  %43 = and i32 %40, 50529027
  %44 = and i32 %42, 50529027
  %45 = add nuw nsw i32 %43, 33686018
  %46 = add nuw nsw i32 %45, %44
  %47 = lshr i32 %40, 2
  %48 = and i32 %47, 1061109567
  %49 = lshr i32 %42, 2
  %50 = and i32 %49, 1061109567
  %narrow47 = add nuw nsw i32 %50, %48
  %51 = load i32, ptr %39, align 4, !tbaa !9
  %52 = add nuw i32 %narrow47, %narrow46
  %53 = add nuw nsw i32 %46, %22
  %54 = lshr i32 %53, 2
  %55 = and i32 %54, 117901063
  %56 = add i32 %52, %55
  %57 = or i32 %56, %51
  %58 = xor i32 %56, %51
  %59 = lshr i32 %58, 1
  %60 = and i32 %59, 2139062143
  %61 = sub i32 %57, %60
  store i32 %61, ptr %39, align 4, !tbaa !9
  %62 = getelementptr inbounds i8, ptr %39, i64 %2
  %63 = add nuw nsw i32 %.04350, 2
  %64 = icmp slt i32 %63, %3
  br i1 %64, label %.lr.ph, label %._crit_edge, !llvm.loop !33

._crit_edge:                                      ; preds = %.lr.ph, %4
  ret void
}